target datalayout = "e-m:e-p270:32:32-p271:32:32-p272:64:64-i64:64-i128:128-f80:128-n8:16:32:64-S128"
target triple = "x86_64-pc-linux-gnu"

%"class.std::__exception_ptr::exception_ptr" = type { ptr }

$_ZNSt15__exception_ptr13exception_ptrC2Ev = comdat any

$_ZNSt15__exception_ptr13exception_ptrD2Ev = comdat any

$_ZTW20faiss_last_exception = comdat any

$_ZNKSt15__exception_ptr13exception_ptrcvbEv = comdat any

$_ZNSt15__exception_ptr13exception_ptrC2ERKS0_ = comdat any

@faiss_last_exception = thread_local global %"class.std::__exception_ptr::exception_ptr" zeroinitializer, align 8
@__dso_handle = external hidden global i8
@_ZTISt9exception = external constant ptr
@__tls_guard = internal thread_local global i8 0, align 1

@_ZTH20faiss_last_exception = alias void (), ptr @__tls_init

; Function Attrs: uwtable
define internal void @__cxx_global_var_init() #0 section ".text.startup" {
  call void @_ZNSt15__exception_ptr13exception_ptrC2Ev(ptr noundef nonnull align 8 dereferenceable(8) @faiss_last_exception) #2
  %1 = call i32 @__cxa_thread_atexit(ptr @_ZNSt15__exception_ptr13exception_ptrD2Ev, ptr @faiss_last_exception, ptr @__dso_handle) #2
  ret void
}

; Function Attrs: inlinehint mustprogress nounwind uwtable
define linkonce_odr void @_ZNSt15__exception_ptr13exception_ptrC2Ev(ptr noundef nonnull align 8 dereferenceable(8) %0) unnamed_addr #1 comdat align 2 {
  %2 = alloca ptr, align 8
  store ptr %0, ptr %2, align 8, !tbaa !3
  %3 = load ptr, ptr %2, align 8
  %4 = getelementptr inbounds nuw %"class.std::__exception_ptr::exception_ptr", ptr %3, i32 0, i32 0
  store ptr null, ptr %4, align 8, !tbaa !8
  ret void
}

; Function Attrs: inlinehint mustprogress nounwind uwtable
define linkonce_odr void @_ZNSt15__exception_ptr13exception_ptrD2Ev(ptr noundef nonnull align 8 dereferenceable(8) %0) unnamed_addr #1 comdat align 2 {
  %2 = alloca ptr, align 8
  store ptr %0, ptr %2, align 8, !tbaa !3
  %3 = load ptr, ptr %2, align 8
  %4 = getelementptr inbounds nuw %"class.std::__exception_ptr::exception_ptr", ptr %3, i32 0, i32 0
  %5 = load ptr, ptr %4, align 8, !tbaa !8
  %6 = icmp ne ptr %5, null
  br i1 %6, label %7, label %8

7:                                                ; preds = %1
  call void @_ZNSt15__exception_ptr13exception_ptr10_M_releaseEv(ptr noundef nonnull align 8 dereferenceable(8) %3) #2
  br label %8

8:                                                ; preds = %7, %1
  ret void
}

; Function Attrs: nounwind
declare i32 @__cxa_thread_atexit(ptr, ptr, ptr) #2

; Function Attrs: mustprogress uwtable
define ptr @faiss_get_last_error() #3 personality ptr @__gxx_personality_v0 {
  %1 = alloca ptr, align 8
  %2 = alloca %"class.std::__exception_ptr::exception_ptr", align 8
  %3 = alloca ptr, align 8
  %4 = alloca i32, align 4
  %5 = alloca ptr, align 8
  %6 = call ptr @_ZTW20faiss_last_exception()
  %7 = call noundef zeroext i1 @_ZNKSt15__exception_ptr13exception_ptrcvbEv(ptr noundef nonnull align 8 dereferenceable(8) %6) #2
  br i1 %7, label %8, label %28

8:                                                ; preds = %0
  %9 = call ptr @_ZTW20faiss_last_exception()
  call void @_ZNSt15__exception_ptr13exception_ptrC2ERKS0_(ptr noundef nonnull align 8 dereferenceable(8) %2, ptr noundef nonnull align 8 dereferenceable(8) %9) #2
  invoke void @_ZSt17rethrow_exceptionNSt15__exception_ptr13exception_ptrE(ptr noundef %2) #11
          to label %10 unwind label %11

10:                                               ; preds = %8
  unreachable

11:                                               ; preds = %8
  %12 = landingpad { ptr, i32 }
          cleanup
          catch ptr @_ZTISt9exception
  %13 = extractvalue { ptr, i32 } %12, 0
  store ptr %13, ptr %3, align 8
  %14 = extractvalue { ptr, i32 } %12, 1
  store i32 %14, ptr %4, align 4
  call void @_ZNSt15__exception_ptr13exception_ptrD2Ev(ptr noundef nonnull align 8 dereferenceable(8) %2) #2
  br label %15

15:                                               ; preds = %11
  %16 = load i32, ptr %4, align 4
  %17 = call i32 @llvm.eh.typeid.for.p0(ptr @_ZTISt9exception) #2
  %18 = icmp eq i32 %16, %17
  br i1 %18, label %19, label %31

19:                                               ; preds = %15
  call void @llvm.lifetime.start.p0(i64 8, ptr %5) #2
  %20 = load ptr, ptr %3, align 8
  %21 = call ptr @__cxa_begin_catch(ptr %20) #2
  store ptr %21, ptr %5, align 8
  %22 = load ptr, ptr %5, align 8, !tbaa !10
  %23 = load ptr, ptr %22, align 8, !tbaa !12
  %24 = getelementptr inbounds ptr, ptr %23, i64 2
  %25 = load ptr, ptr %24, align 8
  %26 = call noundef ptr %25(ptr noundef nonnull align 8 dereferenceable(8) %22) #2
  store ptr %26, ptr %1, align 8
  call void @__cxa_end_catch()
  call void @llvm.lifetime.end.p0(i64 8, ptr %5) #2
  br label %29

27:                                               ; No predecessors!
  br label %28

28:                                               ; preds = %27, %0
  store ptr null, ptr %1, align 8
  br label %29

29:                                               ; preds = %28, %19
  %30 = load ptr, ptr %1, align 8
  ret ptr %30

31:                                               ; preds = %15
  %32 = load ptr, ptr %3, align 8
  %33 = load i32, ptr %4, align 4
  %34 = insertvalue { ptr, i32 } poison, ptr %32, 0
  %35 = insertvalue { ptr, i32 } %34, i32 %33, 1
  resume { ptr, i32 } %35
}

; Function Attrs: uwtable
define weak_odr hidden noundef ptr @_ZTW20faiss_last_exception() #4 comdat {
  call void @_ZTH20faiss_last_exception()
  %1 = call align 8 ptr @llvm.threadlocal.address.p0(ptr align 8 @faiss_last_exception)
  ret ptr %1
}

; Function Attrs: mustprogress nounwind uwtable
define linkonce_odr noundef zeroext i1 @_ZNKSt15__exception_ptr13exception_ptrcvbEv(ptr noundef nonnull align 8 dereferenceable(8) %0) #5 comdat align 2 {
  %2 = alloca ptr, align 8
  store ptr %0, ptr %2, align 8, !tbaa !3
  %3 = load ptr, ptr %2, align 8
  %4 = getelementptr inbounds nuw %"class.std::__exception_ptr::exception_ptr", ptr %3, i32 0, i32 0
  %5 = load ptr, ptr %4, align 8, !tbaa !8
  %6 = icmp ne ptr %5, null
  ret i1 %6
}

; Function Attrs: noreturn
declare void @_ZSt17rethrow_exceptionNSt15__exception_ptr13exception_ptrE(ptr noundef) #6

; Function Attrs: inlinehint mustprogress nounwind uwtable
define linkonce_odr void @_ZNSt15__exception_ptr13exception_ptrC2ERKS0_(ptr noundef nonnull align 8 dereferenceable(8) %0, ptr noundef nonnull align 8 dereferenceable(8) %1) unnamed_addr #1 comdat align 2 {
  %3 = alloca ptr, align 8
  %4 = alloca ptr, align 8
  store ptr %0, ptr %3, align 8, !tbaa !3
  store ptr %1, ptr %4, align 8, !tbaa !3
  %5 = load ptr, ptr %3, align 8
  %6 = getelementptr inbounds nuw %"class.std::__exception_ptr::exception_ptr", ptr %5, i32 0, i32 0
  %7 = load ptr, ptr %4, align 8, !tbaa !3
  %8 = getelementptr inbounds nuw %"class.std::__exception_ptr::exception_ptr", ptr %7, i32 0, i32 0
  %9 = load ptr, ptr %8, align 8, !tbaa !8
  store ptr %9, ptr %6, align 8, !tbaa !8
  %10 = getelementptr inbounds nuw %"class.std::__exception_ptr::exception_ptr", ptr %5, i32 0, i32 0
  %11 = load ptr, ptr %10, align 8, !tbaa !8
  %12 = icmp ne ptr %11, null
  br i1 %12, label %13, label %14

13:                                               ; preds = %2
  call void @_ZNSt15__exception_ptr13exception_ptr9_M_addrefEv(ptr noundef nonnull align 8 dereferenceable(8) %5) #2
  br label %14

14:                                               ; preds = %13, %2
  ret void
}

declare i32 @__gxx_personality_v0(...)

; Function Attrs: nounwind memory(none)
declare i32 @llvm.eh.typeid.for.p0(ptr) #7

; Function Attrs: nocallback nofree nosync nounwind willreturn memory(argmem: readwrite)
declare void @llvm.lifetime.start.p0(i64 immarg, ptr captures(none)) #8

declare ptr @__cxa_begin_catch(ptr)

declare void @__cxa_end_catch()

; Function Attrs: nocallback nofree nosync nounwind willreturn memory(argmem: readwrite)
declare void @llvm.lifetime.end.p0(i64 immarg, ptr captures(none)) #8

; Function Attrs: nounwind
declare void @_ZNSt15__exception_ptr13exception_ptr10_M_releaseEv(ptr noundef nonnull align 8 dereferenceable(8)) #9

; Function Attrs: nounwind
declare void @_ZNSt15__exception_ptr13exception_ptr9_M_addrefEv(ptr noundef nonnull align 8 dereferenceable(8)) #9

; Function Attrs: uwtable
define internal void @__tls_init() #0 {
  %1 = load i8, ptr @__tls_guard, align 1
  %2 = icmp eq i8 %1, 0
  br i1 %2, label %3, label %5, !prof !14

3:                                                ; preds = %0
  store i8 1, ptr @__tls_guard, align 1
  %4 = call ptr @llvm.invariant.start.p0(i64 1, ptr @__tls_guard)
  call void @__cxx_global_var_init()
  br label %5

5:                                                ; preds = %3, %0
  ret void
}

; Function Attrs: nocallback nofree nosync nounwind willreturn memory(argmem: readwrite)
declare ptr @llvm.invariant.start.p0(i64 immarg, ptr captures(none)) #8

; Function Attrs: nocallback nofree nosync nounwind speculatable willreturn memory(none)
declare nonnull ptr @llvm.threadlocal.address.p0(ptr nonnull) #10


!llvm.module.flags = !{!0, !1, !2}

!0 = !{i32 1, !"wchar_size", i32 4}
!1 = !{i32 8, !"PIC Level", i32 2}
!2 = !{i32 7, !"uwtable", i32 2}
!3 = !{!4, !4, i64 0}
!4 = !{!"p1 _ZTSNSt15__exception_ptr13exception_ptrE", !5, i64 0}
!5 = !{!"any pointer", !6, i64 0}
!6 = !{!"omnipotent char", !7, i64 0}
!7 = !{!"Simple C++ TBAA"}
!8 = !{!9, !5, i64 0}
!9 = !{!"_ZTSNSt15__exception_ptr13exception_ptrE", !5, i64 0}
!10 = !{!11, !11, i64 0}
!11 = !{!"p1 _ZTSSt9exception", !5, i64 0}
!12 = !{!13, !13, i64 0}
!13 = !{!"vtable pointer", !7, i64 0}
!14 = !{!"branch_weights", i32 1, i32 1023}
